target datalayout = "e-m:e-p270:32:32-p271:32:32-p272:64:64-i64:64-i128:128-f80:128-n8:16:32:64-S128"
target triple = "x86_64-pc-linux-gnu"

%struct.AVChannelLayout = type { i32, i32, %union.anon.1, ptr }
%union.anon.1 = type { i64 }
%struct.AVRational = type { i32, i32 }
%struct.AVFrame = type { [8 x ptr], [8 x i32], ptr, i32, i32, i32, i32, i32, %struct.AVRational, i64, i64, %struct.AVRational, i32, ptr, i32, i32, [8 x ptr], ptr, i32, ptr, i32, i32, i32, i32, i32, i32, i32, i64, ptr, i32, ptr, ptr, i64, i64, i64, i64, ptr, %struct.AVChannelLayout, i64 }

; Function Attrs: nounwind uwtable
define internal i32 @is_same4_16(ptr noundef %0, i32 noundef %1, i32 noundef %2, i32 noundef %3, i32 noundef %4, i32 noundef %5, i32 noundef %6) #1 {
  %8 = alloca i32, align 4
  %9 = alloca ptr, align 8
  %10 = alloca i32, align 4
  %11 = alloca i32, align 4
  %12 = alloca i32, align 4
  %13 = alloca i32, align 4
  %14 = alloca i32, align 4
  %15 = alloca i32, align 4
  %16 = alloca i32, align 4
  %17 = alloca i32, align 4
  %18 = alloca i32, align 4
  %19 = alloca i32, align 4
  %20 = alloca i32, align 4
  store ptr %0, ptr %9, align 8, !tbaa !26
  store i32 %1, ptr %10, align 4, !tbaa !36
  store i32 %2, ptr %11, align 4, !tbaa !36
  store i32 %3, ptr %12, align 4, !tbaa !36
  store i32 %4, ptr %13, align 4, !tbaa !36
  store i32 %5, ptr %14, align 4, !tbaa !36
  store i32 %6, ptr %15, align 4, !tbaa !36
  call void @llvm.lifetime.start.p0(i64 4, ptr %16) #4
  %21 = load ptr, ptr %9, align 8, !tbaa !26
  %22 = getelementptr inbounds nuw %struct.AVFrame, ptr %21, i32 0, i32 0
  %23 = getelementptr inbounds [8 x ptr], ptr %22, i64 0, i64 0
  %24 = load ptr, ptr %23, align 8, !tbaa !70
  %25 = load i32, ptr %11, align 4, !tbaa !36
  %26 = load ptr, ptr %9, align 8, !tbaa !26
  %27 = getelementptr inbounds nuw %struct.AVFrame, ptr %26, i32 0, i32 1
  %28 = getelementptr inbounds [8 x i32], ptr %27, i64 0, i64 0
  %29 = load i32, ptr %28, align 8, !tbaa !36
  %30 = mul nsw i32 %25, %29
  %31 = sext i32 %30 to i64
  %32 = getelementptr inbounds i8, ptr %24, i64 %31
  %33 = load i32, ptr %10, align 4, !tbaa !36
  %34 = mul nsw i32 2, %33
  %35 = sext i32 %34 to i64
  %36 = getelementptr inbounds i8, ptr %32, i64 %35
  %37 = load i16, ptr %36, align 1, !tbaa !71
  %38 = zext i16 %37 to i32
  store i32 %38, ptr %16, align 4, !tbaa !36
  call void @llvm.lifetime.start.p0(i64 4, ptr %17) #4
  %39 = load ptr, ptr %9, align 8, !tbaa !26
  %40 = getelementptr inbounds nuw %struct.AVFrame, ptr %39, i32 0, i32 0
  %41 = getelementptr inbounds [8 x ptr], ptr %40, i64 0, i64 1
  %42 = load ptr, ptr %41, align 8, !tbaa !70
  %43 = load i32, ptr %11, align 4, !tbaa !36
  %44 = load ptr, ptr %9, align 8, !tbaa !26
  %45 = getelementptr inbounds nuw %struct.AVFrame, ptr %44, i32 0, i32 1
  %46 = getelementptr inbounds [8 x i32], ptr %45, i64 0, i64 1
  %47 = load i32, ptr %46, align 4, !tbaa !36
  %48 = mul nsw i32 %43, %47
  %49 = sext i32 %48 to i64
  %50 = getelementptr inbounds i8, ptr %42, i64 %49
  %51 = load i32, ptr %10, align 4, !tbaa !36
  %52 = mul nsw i32 2, %51
  %53 = sext i32 %52 to i64
  %54 = getelementptr inbounds i8, ptr %50, i64 %53
  %55 = load i16, ptr %54, align 1, !tbaa !71
  %56 = zext i16 %55 to i32
  store i32 %56, ptr %17, align 4, !tbaa !36
  call void @llvm.lifetime.start.p0(i64 4, ptr %18) #4
  %57 = load ptr, ptr %9, align 8, !tbaa !26
  %58 = getelementptr inbounds nuw %struct.AVFrame, ptr %57, i32 0, i32 0
  %59 = getelementptr inbounds [8 x ptr], ptr %58, i64 0, i64 2
  %60 = load ptr, ptr %59, align 8, !tbaa !70
  %61 = load i32, ptr %11, align 4, !tbaa !36
  %62 = load ptr, ptr %9, align 8, !tbaa !26
  %63 = getelementptr inbounds nuw %struct.AVFrame, ptr %62, i32 0, i32 1
  %64 = getelementptr inbounds [8 x i32], ptr %63, i64 0, i64 2
  %65 = load i32, ptr %64, align 8, !tbaa !36
  %66 = mul nsw i32 %61, %65
  %67 = sext i32 %66 to i64
  %68 = getelementptr inbounds i8, ptr %60, i64 %67
  %69 = load i32, ptr %10, align 4, !tbaa !36
  %70 = mul nsw i32 2, %69
  %71 = sext i32 %70 to i64
  %72 = getelementptr inbounds i8, ptr %68, i64 %71
  %73 = load i16, ptr %72, align 1, !tbaa !71
  %74 = zext i16 %73 to i32
  store i32 %74, ptr %18, align 4, !tbaa !36
  call void @llvm.lifetime.start.p0(i64 4, ptr %19) #4
  %75 = load ptr, ptr %9, align 8, !tbaa !26
  %76 = getelementptr inbounds nuw %struct.AVFrame, ptr %75, i32 0, i32 0
  %77 = getelementptr inbounds [8 x ptr], ptr %76, i64 0, i64 3
  %78 = load ptr, ptr %77, align 8, !tbaa !70
  %79 = load i32, ptr %11, align 4, !tbaa !36
  %80 = load ptr, ptr %9, align 8, !tbaa !26
  %81 = getelementptr inbounds nuw %struct.AVFrame, ptr %80, i32 0, i32 1
  %82 = getelementptr inbounds [8 x i32], ptr %81, i64 0, i64 3
  %83 = load i32, ptr %82, align 4, !tbaa !36
  %84 = mul nsw i32 %79, %83
  %85 = sext i32 %84 to i64
  %86 = getelementptr inbounds i8, ptr %78, i64 %85
  %87 = load i32, ptr %10, align 4, !tbaa !36
  %88 = mul nsw i32 2, %87
  %89 = sext i32 %88 to i64
  %90 = getelementptr inbounds i8, ptr %86, i64 %89
  %91 = load i16, ptr %90, align 1, !tbaa !71
  %92 = zext i16 %91 to i32
  store i32 %92, ptr %19, align 4, !tbaa !36
  %93 = load i32, ptr %12, align 4, !tbaa !36
  %94 = load i32, ptr %16, align 4, !tbaa !36
  %95 = icmp eq i32 %93, %94
  br i1 %95, label %96, label %109

96:                                               ; preds = %7
  %97 = load i32, ptr %13, align 4, !tbaa !36
  %98 = load i32, ptr %17, align 4, !tbaa !36
  %99 = icmp eq i32 %97, %98
  br i1 %99, label %100, label %109

100:                                              ; preds = %96
  %101 = load i32, ptr %14, align 4, !tbaa !36
  %102 = load i32, ptr %18, align 4, !tbaa !36
  %103 = icmp eq i32 %101, %102
  br i1 %103, label %104, label %109

104:                                              ; preds = %100
  %105 = load i32, ptr %15, align 4, !tbaa !36
  %106 = load i32, ptr %19, align 4, !tbaa !36
  %107 = icmp eq i32 %105, %106
  br i1 %107, label %108, label %109

108:                                              ; preds = %104
  store i32 1, ptr %8, align 4
  store i32 1, ptr %20, align 4
  br label %110

109:                                              ; preds = %104, %100, %96, %7
  store i32 0, ptr %8, align 4
  store i32 1, ptr %20, align 4
  br label %110

110:                                              ; preds = %109, %108
  call void @llvm.lifetime.end.p0(i64 4, ptr %19) #4
  call void @llvm.lifetime.end.p0(i64 4, ptr %18) #4
  call void @llvm.lifetime.end.p0(i64 4, ptr %17) #4
  call void @llvm.lifetime.end.p0(i64 4, ptr %16) #4
  %111 = load i32, ptr %8, align 4
  ret i32 %111
}