; Function Attrs: mustprogress nofree norecurse nosync nounwind willreturn memory(read, inaccessiblemem: none) uwtable
define internal range(i32 0, 2) i32 @is_same4_16(ptr noundef readonly captures(none) %0, i32 noundef %1, i32 noundef %2, i32 noundef %3, i32 noundef %4, i32 noundef %5, i32 noundef %6) #5 {
  %8 = load ptr, ptr %0, align 8, !tbaa !65
  %9 = getelementptr inbounds nuw i8, ptr %0, i64 64
  %10 = load i32, ptr %9, align 8, !tbaa !31
  %11 = mul nsw i32 %10, %2
  %12 = sext i32 %11 to i64
  %13 = getelementptr inbounds i8, ptr %8, i64 %12
  %14 = shl nsw i32 %1, 1
  %15 = sext i32 %14 to i64
  %16 = getelementptr inbounds i8, ptr %13, i64 %15
  %17 = load i16, ptr %16, align 1, !tbaa !66
  %18 = zext i16 %17 to i32
  %19 = icmp eq i32 %3, %18
  br i1 %19, label %20, label %54

20:                                               ; preds = %7
  %21 = getelementptr inbounds nuw i8, ptr %0, i64 24
  %22 = load ptr, ptr %21, align 8, !tbaa !65
  %23 = getelementptr inbounds nuw i8, ptr %0, i64 76
  %24 = load i32, ptr %23, align 4, !tbaa !31
  %25 = mul nsw i32 %24, %2
  %26 = sext i32 %25 to i64
  %27 = getelementptr inbounds i8, ptr %22, i64 %26
  %28 = getelementptr inbounds i8, ptr %27, i64 %15
  %29 = load i16, ptr %28, align 1, !tbaa !66
  %30 = zext i16 %29 to i32
  %31 = getelementptr inbounds nuw i8, ptr %0, i64 16
  %32 = load ptr, ptr %31, align 8, !tbaa !65
  %33 = getelementptr inbounds nuw i8, ptr %0, i64 72
  %34 = load i32, ptr %33, align 8, !tbaa !31
  %35 = mul nsw i32 %34, %2
  %36 = sext i32 %35 to i64
  %37 = getelementptr inbounds i8, ptr %32, i64 %36
  %38 = getelementptr inbounds i8, ptr %37, i64 %15
  %39 = load i16, ptr %38, align 1, !tbaa !66
  %40 = zext i16 %39 to i32
  %41 = getelementptr inbounds nuw i8, ptr %0, i64 8
  %42 = load ptr, ptr %41, align 8, !tbaa !65
  %43 = getelementptr inbounds nuw i8, ptr %0, i64 68
  %44 = load i32, ptr %43, align 4, !tbaa !31
  %45 = mul nsw i32 %44, %2
  %46 = sext i32 %45 to i64
  %47 = getelementptr inbounds i8, ptr %42, i64 %46
  %48 = getelementptr inbounds i8, ptr %47, i64 %15
  %49 = load i16, ptr %48, align 1, !tbaa !66
  %50 = zext i16 %49 to i32
  %51 = icmp eq i32 %4, %50
  %52 = icmp eq i32 %5, %40
  %or.cond = select i1 %51, i1 %52, i1 false
  %53 = icmp eq i32 %6, %30
  %or.cond24 = select i1 %or.cond, i1 %53, i1 false
  br i1 %or.cond24, label %55, label %54

54:                                               ; preds = %20, %7
  br label %55

55:                                               ; preds = %20, %54
  %.0 = phi i32 [ 0, %54 ], [ 1, %20 ]
  ret i32 %.0
}